target datalayout = "e-m:e-p270:32:32-p271:32:32-p272:64:64-i64:64-i128:128-f80:128-n8:16:32:64-S128"
target triple = "x86_64-pc-linux-gnu"

%struct.jpeg_decompress_struct = type { ptr, ptr, ptr, ptr, i32, i32, ptr, i32, i32, i32, i32, i32, i32, i32, double, i32, i32, i32, i32, i32, i32, i32, i32, i32, i32, i32, i32, i32, i32, i32, i32, i32, i32, ptr, i32, i32, i32, i32, i32, ptr, [4 x ptr], [4 x ptr], [4 x ptr], i32, ptr, i32, i32, [16 x i8], [16 x i8], [16 x i8], i32, i32, i8, i8, i8, i16, i16, i32, i8, i32, ptr, i32, i32, i32, i32, ptr, i32, [4 x ptr], i32, i32, i32, [10 x i32], i32, i32, i32, i32, i32, ptr, ptr, ptr, ptr, ptr, ptr, ptr, ptr, ptr, ptr, ptr }
%struct.my_source_mgr = type { %struct.jpeg_source_mgr, ptr, ptr, i32 }
%struct.jpeg_source_mgr = type { ptr, i64, ptr, ptr, ptr, ptr, ptr }
%struct.jpeg_error_mgr = type { ptr, ptr, ptr, ptr, ptr, i32, %union.anon, i32, i64, ptr, i32, ptr, i32, i32 }
%union.anon = type { [8 x i32], [48 x i8] }

; Function Attrs: nounwind uwtable
define internal i32 @fill_input_buffer(ptr noundef %0) #0 {
  %2 = alloca ptr, align 8
  %3 = alloca ptr, align 8
  %4 = alloca i64, align 8
  store ptr %0, ptr %2, align 8, !tbaa !3
  call void @llvm.lifetime.start.p0(i64 8, ptr %3) #3
  %5 = load ptr, ptr %2, align 8, !tbaa !3
  %6 = getelementptr inbounds nuw %struct.jpeg_decompress_struct, ptr %5, i32 0, i32 6
  %7 = load ptr, ptr %6, align 8, !tbaa !10
  store ptr %7, ptr %3, align 8, !tbaa !38
  call void @llvm.lifetime.start.p0(i64 8, ptr %4) #3
  %8 = load ptr, ptr %3, align 8, !tbaa !38
  %9 = getelementptr inbounds nuw %struct.my_source_mgr, ptr %8, i32 0, i32 2
  %10 = load ptr, ptr %9, align 8, !tbaa !39
  %11 = load ptr, ptr %3, align 8, !tbaa !38
  %12 = getelementptr inbounds nuw %struct.my_source_mgr, ptr %11, i32 0, i32 1
  %13 = load ptr, ptr %12, align 8, !tbaa !52
  %14 = call i64 @fread(ptr noundef %10, i64 noundef 1, i64 noundef 4096, ptr noundef %13)
  store i64 %14, ptr %4, align 8, !tbaa !56
  %15 = load i64, ptr %4, align 8, !tbaa !56
  %16 = icmp ule i64 %15, 0
  br i1 %16, label %17, label %52

17:                                               ; preds = %1
  %18 = load ptr, ptr %3, align 8, !tbaa !38
  %19 = getelementptr inbounds nuw %struct.my_source_mgr, ptr %18, i32 0, i32 3
  %20 = load i32, ptr %19, align 8, !tbaa !55
  %21 = icmp ne i32 %20, 0
  br i1 %21, label %22, label %33

22:                                               ; preds = %17
  %23 = load ptr, ptr %2, align 8, !tbaa !3
  %24 = getelementptr inbounds nuw %struct.jpeg_decompress_struct, ptr %23, i32 0, i32 0
  %25 = load ptr, ptr %24, align 8, !tbaa !43
  %26 = getelementptr inbounds nuw %struct.jpeg_error_mgr, ptr %25, i32 0, i32 5
  store i32 42, ptr %26, align 8, !tbaa !44
  %27 = load ptr, ptr %2, align 8, !tbaa !3
  %28 = getelementptr inbounds nuw %struct.jpeg_decompress_struct, ptr %27, i32 0, i32 0
  %29 = load ptr, ptr %28, align 8, !tbaa !43
  %30 = getelementptr inbounds nuw %struct.jpeg_error_mgr, ptr %29, i32 0, i32 0
  %31 = load ptr, ptr %30, align 8, !tbaa !46
  %32 = load ptr, ptr %2, align 8, !tbaa !3
  call void %31(ptr noundef %32)
  br label %33

33:                                               ; preds = %22, %17
  %34 = load ptr, ptr %2, align 8, !tbaa !3
  %35 = getelementptr inbounds nuw %struct.jpeg_decompress_struct, ptr %34, i32 0, i32 0
  %36 = load ptr, ptr %35, align 8, !tbaa !43
  %37 = getelementptr inbounds nuw %struct.jpeg_error_mgr, ptr %36, i32 0, i32 5
  store i32 120, ptr %37, align 8, !tbaa !44
  %38 = load ptr, ptr %2, align 8, !tbaa !3
  %39 = getelementptr inbounds nuw %struct.jpeg_decompress_struct, ptr %38, i32 0, i32 0
  %40 = load ptr, ptr %39, align 8, !tbaa !43
  %41 = getelementptr inbounds nuw %struct.jpeg_error_mgr, ptr %40, i32 0, i32 1
  %42 = load ptr, ptr %41, align 8, !tbaa !57
  %43 = load ptr, ptr %2, align 8, !tbaa !3
  call void %42(ptr noundef %43, i32 noundef -1)
  %44 = load ptr, ptr %3, align 8, !tbaa !38
  %45 = getelementptr inbounds nuw %struct.my_source_mgr, ptr %44, i32 0, i32 2
  %46 = load ptr, ptr %45, align 8, !tbaa !39
  %47 = getelementptr inbounds i8, ptr %46, i64 0
  store i8 -1, ptr %47, align 1, !tbaa !58
  %48 = load ptr, ptr %3, align 8, !tbaa !38
  %49 = getelementptr inbounds nuw %struct.my_source_mgr, ptr %48, i32 0, i32 2
  %50 = load ptr, ptr %49, align 8, !tbaa !39
  %51 = getelementptr inbounds i8, ptr %50, i64 1
  store i8 -39, ptr %51, align 1, !tbaa !58
  store i64 2, ptr %4, align 8, !tbaa !56
  br label %52

52:                                               ; preds = %33, %1
  %53 = load ptr, ptr %3, align 8, !tbaa !38
  %54 = getelementptr inbounds nuw %struct.my_source_mgr, ptr %53, i32 0, i32 2
  %55 = load ptr, ptr %54, align 8, !tbaa !39
  %56 = load ptr, ptr %3, align 8, !tbaa !38
  %57 = getelementptr inbounds nuw %struct.my_source_mgr, ptr %56, i32 0, i32 0
  %58 = getelementptr inbounds nuw %struct.jpeg_source_mgr, ptr %57, i32 0, i32 0
  store ptr %55, ptr %58, align 8, !tbaa !54
  %59 = load i64, ptr %4, align 8, !tbaa !56
  %60 = load ptr, ptr %3, align 8, !tbaa !38
  %61 = getelementptr inbounds nuw %struct.my_source_mgr, ptr %60, i32 0, i32 0
  %62 = getelementptr inbounds nuw %struct.jpeg_source_mgr, ptr %61, i32 0, i32 1
  store i64 %59, ptr %62, align 8, !tbaa !53
  %63 = load ptr, ptr %3, align 8, !tbaa !38
  %64 = getelementptr inbounds nuw %struct.my_source_mgr, ptr %63, i32 0, i32 3
  store i32 0, ptr %64, align 8, !tbaa !55
  call void @llvm.lifetime.end.p0(i64 8, ptr %4) #3
  call void @llvm.lifetime.end.p0(i64 8, ptr %3) #3
  ret i32 1
}