; Function Attrs: nounwind uwtable
define internal noundef i32 @fill_input_buffer(ptr noundef %0) #0 {
  %2 = getelementptr inbounds nuw i8, ptr %0, i64 40
  %3 = load ptr, ptr %2, align 8, !tbaa !3
  %4 = getelementptr inbounds nuw i8, ptr %3, i64 64
  %5 = load ptr, ptr %4, align 8, !tbaa !34
  %6 = getelementptr inbounds nuw i8, ptr %3, i64 56
  %7 = load ptr, ptr %6, align 8, !tbaa !48
  %8 = tail call i64 @fread(ptr noundef %5, i64 noundef 1, i64 noundef 4096, ptr noundef %7)
  %9 = icmp eq i64 %8, 0
  br i1 %9, label %10, label %25

10:                                               ; preds = %1
  %11 = getelementptr inbounds nuw i8, ptr %3, i64 72
  %12 = load i32, ptr %11, align 8, !tbaa !49
  %.not = icmp eq i32 %12, 0
  br i1 %.not, label %17, label %13

13:                                               ; preds = %10
  %14 = load ptr, ptr %0, align 8, !tbaa !39
  %15 = getelementptr inbounds nuw i8, ptr %14, i64 40
  store i32 42, ptr %15, align 8, !tbaa !40
  %16 = load ptr, ptr %14, align 8, !tbaa !42
  tail call void %16(ptr noundef nonnull %0) #6
  br label %17

17:                                               ; preds = %13, %10
  %18 = load ptr, ptr %0, align 8, !tbaa !39
  %19 = getelementptr inbounds nuw i8, ptr %18, i64 40
  store i32 120, ptr %19, align 8, !tbaa !40
  %20 = getelementptr inbounds nuw i8, ptr %18, i64 8
  %21 = load ptr, ptr %20, align 8, !tbaa !50
  tail call void %21(ptr noundef nonnull %0, i32 noundef -1) #6
  %22 = load ptr, ptr %4, align 8, !tbaa !34
  store i8 -1, ptr %22, align 1, !tbaa !51
  %23 = load ptr, ptr %4, align 8, !tbaa !34
  %24 = getelementptr inbounds nuw i8, ptr %23, i64 1
  store i8 -39, ptr %24, align 1, !tbaa !51
  br label %25

25:                                               ; preds = %17, %1
  %.0 = phi i64 [ 2, %17 ], [ %8, %1 ]
  %26 = load ptr, ptr %4, align 8, !tbaa !34
  store ptr %26, ptr %3, align 8, !tbaa !52
  %27 = getelementptr inbounds nuw i8, ptr %3, i64 8
  store i64 %.0, ptr %27, align 8, !tbaa !53
  %28 = getelementptr inbounds nuw i8, ptr %3, i64 72
  store i32 0, ptr %28, align 8, !tbaa !49
  ret i32 1
}